; Function Attrs: mustprogress nofree norecurse nosync nounwind memory(read, argmem: readwrite, inaccessiblemem: none) uwtable
define noundef zeroext i1 @_ZN5boost10test_tools9tt_detail15is_defined_implENS_9unit_test13basic_cstringIKcEES5_(ptr nocapture noundef readonly %0, ptr nocapture noundef %1) local_unnamed_addr #14 {
  %3 = load ptr, ptr %1, align 8, !tbaa !29
  %4 = getelementptr inbounds nuw i8, ptr %3, i64 2
  %5 = getelementptr inbounds nuw i8, ptr %1, i64 8
  %6 = load ptr, ptr %5, align 8, !tbaa !31
  %.not.i = icmp ugt ptr %6, %4
  %spec.store.select.i = select i1 %.not.i, ptr %4, ptr %6
  store ptr %spec.store.select.i, ptr %1, align 8
  %7 = getelementptr inbounds nuw i8, ptr %0, i64 8
  %8 = load ptr, ptr %7, align 8, !tbaa !31
  %9 = load ptr, ptr %0, align 8, !tbaa !29
  %10 = ptrtoint ptr %8 to i64
  %11 = ptrtoint ptr %9 to i64
  %12 = sub i64 %10, %11
  %13 = ptrtoint ptr %6 to i64
  %14 = ptrtoint ptr %spec.store.select.i to i64
  %15 = sub i64 %13, %14
  %16 = icmp eq i64 %12, %15
  br i1 %16, label %17, label %_ZN5boost9unit_testneIKcEEbRKNS0_13basic_cstringIT_EES7_.exit

17:                                               ; preds = %2
  %.not12.i.i.i = icmp eq i64 %12, 0
  br i1 %.not12.i.i.i, label %_ZN5boost9unit_testneIKcEEbRKNS0_13basic_cstringIT_EES7_.exit, label %.lr.ph.i.i.i

.lr.ph.i.i.i:                                     ; preds = %17, %.lr.ph.i.i.i
  %.015.i.i.i = phi i64 [ %22, %.lr.ph.i.i.i ], [ %12, %17 ]
  %.0814.i.i.i = phi ptr [ %21, %.lr.ph.i.i.i ], [ %spec.store.select.i, %17 ]
  %.0913.i.i.i = phi ptr [ %20, %.lr.ph.i.i.i ], [ %9, %17 ]
  %18 = load i8, ptr %.0913.i.i.i, align 1, !tbaa !9
  %19 = load i8, ptr %.0814.i.i.i, align 1, !tbaa !9
  %.not.i1.not = icmp ne i8 %18, %19
  %20 = getelementptr inbounds nuw i8, ptr %.0913.i.i.i, i64 1
  %21 = getelementptr inbounds nuw i8, ptr %.0814.i.i.i, i64 1
  %22 = add i64 %.015.i.i.i, -1
  %.not.i.i.i = icmp eq i64 %22, 0
  %or.cond = select i1 %.not.i1.not, i1 true, i1 %.not.i.i.i
  br i1 %or.cond, label %_ZN5boost9unit_testneIKcEEbRKNS0_13basic_cstringIT_EES7_.exit, label %.lr.ph.i.i.i, !llvm.loop !124

_ZN5boost9unit_testneIKcEEbRKNS0_13basic_cstringIT_EES7_.exit: ; preds = %.lr.ph.i.i.i, %2, %17
  %23 = phi i1 [ true, %2 ], [ false, %17 ], [ %.not.i1.not, %.lr.ph.i.i.i ]
  ret i1 %23
}